target datalayout = "e-m:e-p270:32:32-p271:32:32-p272:64:64-i64:64-i128:128-f80:128-n8:16:32:64-S128"
target triple = "x86_64-pc-linux-gnu"

%struct.FrameRateContext = type { ptr, %struct.AVRational, i32, double, i32, i32, [4 x i32], [4 x i32], i32, %struct.AVRational, %struct.AVRational, ptr, double, i32, i32, ptr, ptr, ptr, i64, i64, i64, double, i32, i64, i64, ptr }
%struct.AVRational = type { i32, i32 }
%struct.AVFilterContext = type { ptr, ptr, ptr, ptr, ptr, i32, ptr, ptr, i32, ptr, ptr, i32, i32, ptr, ptr, ptr, ptr, i32, ptr, i32, i32 }
%struct.AVChannelLayout = type { i32, i32, %union.anon.1, ptr }
%union.anon.1 = type { i64 }
%struct.AVFilterLink = type { ptr, ptr, ptr, ptr, i32, i32, i32, i32, %struct.AVRational, i32, i32, i32, %struct.AVChannelLayout, %struct.AVRational, ptr, i32, %struct.AVFilterFormatsConfig, %struct.AVFilterFormatsConfig }
%struct.AVFilterFormatsConfig = type { ptr, ptr, ptr, ptr, ptr }
%struct.AVPixFmtDescriptor = type { ptr, i8, i8, i8, i64, [4 x %struct.AVComponentDescriptor], ptr }
%struct.AVComponentDescriptor = type { i32, i32, i32, i32, i32 }

; Function Attrs: nounwind uwtable
define void @ff_framerate_init(ptr noundef %0) #0 {
  %2 = alloca ptr, align 8
  store ptr %0, ptr %2, align 8, !tbaa !4
  %3 = load ptr, ptr %2, align 8, !tbaa !4
  %4 = getelementptr inbounds nuw %struct.FrameRateContext, ptr %3, i32 0, i32 14
  %5 = load i32, ptr %4, align 4, !tbaa !9
  %6 = icmp eq i32 %5, 8
  br i1 %6, label %7, label %12

7:                                                ; preds = %1
  %8 = load ptr, ptr %2, align 8, !tbaa !4
  %9 = getelementptr inbounds nuw %struct.FrameRateContext, ptr %8, i32 0, i32 13
  store i32 128, ptr %9, align 8, !tbaa !17
  %10 = load ptr, ptr %2, align 8, !tbaa !4
  %11 = getelementptr inbounds nuw %struct.FrameRateContext, ptr %10, i32 0, i32 25
  store ptr @blend_frames8_c, ptr %11, align 8, !tbaa !18
  br label %17

12:                                               ; preds = %1
  %13 = load ptr, ptr %2, align 8, !tbaa !4
  %14 = getelementptr inbounds nuw %struct.FrameRateContext, ptr %13, i32 0, i32 13
  store i32 32768, ptr %14, align 8, !tbaa !17
  %15 = load ptr, ptr %2, align 8, !tbaa !4
  %16 = getelementptr inbounds nuw %struct.FrameRateContext, ptr %15, i32 0, i32 25
  store ptr @blend_frames16_c, ptr %16, align 8, !tbaa !18
  br label %17

17:                                               ; preds = %12, %7
  ret void
}

; Function Attrs: nounwind uwtable
define internal i32 @config_input(ptr noundef %0) #0 {
  %2 = alloca i32, align 4
  %3 = alloca ptr, align 8
  %4 = alloca ptr, align 8
  %5 = alloca ptr, align 8
  %6 = alloca ptr, align 8
  %7 = alloca i32, align 4
  %8 = alloca i32, align 4
  store ptr %0, ptr %3, align 8, !tbaa !47
  call void @llvm.lifetime.start.p0(i64 8, ptr %4) #11
  %9 = load ptr, ptr %3, align 8, !tbaa !47
  %10 = getelementptr inbounds nuw %struct.AVFilterLink, ptr %9, i32 0, i32 2
  %11 = load ptr, ptr %10, align 8, !tbaa !68
  store ptr %11, ptr %4, align 8, !tbaa !33
  call void @llvm.lifetime.start.p0(i64 8, ptr %5) #11
  %12 = load ptr, ptr %4, align 8, !tbaa !33
  %13 = getelementptr inbounds nuw %struct.AVFilterContext, ptr %12, i32 0, i32 9
  %14 = load ptr, ptr %13, align 8, !tbaa !35
  store ptr %14, ptr %5, align 8, !tbaa !4
  call void @llvm.lifetime.start.p0(i64 8, ptr %6) #11
  %15 = load ptr, ptr %3, align 8, !tbaa !47
  %16 = getelementptr inbounds nuw %struct.AVFilterLink, ptr %15, i32 0, i32 5
  %17 = load i32, ptr %16, align 4, !tbaa !73
  %18 = call ptr @av_pix_fmt_desc_get(i32 noundef %17)
  store ptr %18, ptr %6, align 8, !tbaa !74
  call void @llvm.lifetime.start.p0(i64 4, ptr %7) #11
  %19 = load ptr, ptr %6, align 8, !tbaa !74
  %20 = getelementptr inbounds nuw %struct.AVPixFmtDescriptor, ptr %19, i32 0, i32 3
  %21 = load i8, ptr %20, align 2, !tbaa !76
  %22 = zext i8 %21 to i32
  %23 = load ptr, ptr %5, align 8, !tbaa !4
  %24 = getelementptr inbounds nuw %struct.FrameRateContext, ptr %23, i32 0, i32 8
  store i32 %22, ptr %24, align 8, !tbaa !78
  store i32 0, ptr %7, align 4, !tbaa !22
  br label %25

25:                                               ; preds = %63, %1
  %26 = load i32, ptr %7, align 4, !tbaa !22
  %27 = icmp slt i32 %26, 4
  br i1 %27, label %28, label %66

28:                                               ; preds = %25
  %29 = load ptr, ptr %3, align 8, !tbaa !47
  %30 = getelementptr inbounds nuw %struct.AVFilterLink, ptr %29, i32 0, i32 5
  %31 = load i32, ptr %30, align 4, !tbaa !73
  %32 = load ptr, ptr %3, align 8, !tbaa !47
  %33 = getelementptr inbounds nuw %struct.AVFilterLink, ptr %32, i32 0, i32 6
  %34 = load i32, ptr %33, align 8, !tbaa !79
  %35 = load i32, ptr %7, align 4, !tbaa !22
  %36 = call i32 @av_image_get_linesize(i32 noundef %31, i32 noundef %34, i32 noundef %35)
  %37 = load ptr, ptr %5, align 8, !tbaa !4
  %38 = getelementptr inbounds nuw %struct.FrameRateContext, ptr %37, i32 0, i32 6
  %39 = load i32, ptr %7, align 4, !tbaa !22
  %40 = sext i32 %39 to i64
  %41 = getelementptr inbounds [4 x i32], ptr %38, i64 0, i64 %40
  store i32 %36, ptr %41, align 4, !tbaa !22
  %42 = load ptr, ptr %3, align 8, !tbaa !47
  %43 = getelementptr inbounds nuw %struct.AVFilterLink, ptr %42, i32 0, i32 7
  %44 = load i32, ptr %43, align 4, !tbaa !80
  %45 = load i32, ptr %7, align 4, !tbaa !22
  %46 = icmp eq i32 %45, 1
  br i1 %46, label %50, label %47

47:                                               ; preds = %28
  %48 = load i32, ptr %7, align 4, !tbaa !22
  %49 = icmp eq i32 %48, 2
  br i1 %49, label %50, label %54

50:                                               ; preds = %47, %28
  %51 = load ptr, ptr %5, align 8, !tbaa !4
  %52 = getelementptr inbounds nuw %struct.FrameRateContext, ptr %51, i32 0, i32 8
  %53 = load i32, ptr %52, align 8, !tbaa !78
  br label %55

54:                                               ; preds = %47
  br label %55

55:                                               ; preds = %54, %50
  %56 = phi i32 [ %53, %50 ], [ 0, %54 ]
  %57 = ashr i32 %44, %56
  %58 = load ptr, ptr %5, align 8, !tbaa !4
  %59 = getelementptr inbounds nuw %struct.FrameRateContext, ptr %58, i32 0, i32 7
  %60 = load i32, ptr %7, align 4, !tbaa !22
  %61 = sext i32 %60 to i64
  %62 = getelementptr inbounds [4 x i32], ptr %59, i64 0, i64 %61
  store i32 %57, ptr %62, align 4, !tbaa !22
  br label %63

63:                                               ; preds = %55
  %64 = load i32, ptr %7, align 4, !tbaa !22
  %65 = add nsw i32 %64, 1
  store i32 %65, ptr %7, align 4, !tbaa !22
  br label %25, !llvm.loop !81

66:                                               ; preds = %25
  %67 = load ptr, ptr %6, align 8, !tbaa !74
  %68 = getelementptr inbounds nuw %struct.AVPixFmtDescriptor, ptr %67, i32 0, i32 5
  %69 = getelementptr inbounds [4 x %struct.AVComponentDescriptor], ptr %68, i64 0, i64 0
  %70 = getelementptr inbounds nuw %struct.AVComponentDescriptor, ptr %69, i32 0, i32 4
  %71 = load i32, ptr %70, align 8, !tbaa !82
  %72 = load ptr, ptr %5, align 8, !tbaa !4
  %73 = getelementptr inbounds nuw %struct.FrameRateContext, ptr %72, i32 0, i32 14
  store i32 %71, ptr %73, align 4, !tbaa !9
  %74 = load ptr, ptr %5, align 8, !tbaa !4
  %75 = getelementptr inbounds nuw %struct.FrameRateContext, ptr %74, i32 0, i32 14
  %76 = load i32, ptr %75, align 4, !tbaa !9
  %77 = icmp eq i32 %76, 8
  %78 = select i1 %77, i32 8, i32 16
  %79 = call ptr @ff_scene_sad_get_fn(i32 noundef %78)
  %80 = load ptr, ptr %5, align 8, !tbaa !4
  %81 = getelementptr inbounds nuw %struct.FrameRateContext, ptr %80, i32 0, i32 11
  store ptr %79, ptr %81, align 8, !tbaa !84
  %82 = load ptr, ptr %5, align 8, !tbaa !4
  %83 = getelementptr inbounds nuw %struct.FrameRateContext, ptr %82, i32 0, i32 11
  %84 = load ptr, ptr %83, align 8, !tbaa !84
  %85 = icmp ne ptr %84, null
  br i1 %85, label %87, label %86

86:                                               ; preds = %66
  store i32 -22, ptr %2, align 4
  store i32 1, ptr %8, align 4
  br label %93

87:                                               ; preds = %66
  %88 = load ptr, ptr %5, align 8, !tbaa !4
  %89 = getelementptr inbounds nuw %struct.FrameRateContext, ptr %88, i32 0, i32 9
  %90 = load ptr, ptr %3, align 8, !tbaa !47
  %91 = getelementptr inbounds nuw %struct.AVFilterLink, ptr %90, i32 0, i32 13
  call void @llvm.memcpy.p0.p0.i64(ptr align 4 %89, ptr align 8 %91, i64 8, i1 false), !tbaa.struct !85
  %92 = load ptr, ptr %5, align 8, !tbaa !4
  call void @ff_framerate_init(ptr noundef %92)
  store i32 0, ptr %2, align 4
  store i32 1, ptr %8, align 4
  br label %93

93:                                               ; preds = %87, %86
  call void @llvm.lifetime.end.p0(i64 4, ptr %7) #11
  call void @llvm.lifetime.end.p0(i64 8, ptr %6) #11
  call void @llvm.lifetime.end.p0(i64 8, ptr %5) #11
  call void @llvm.lifetime.end.p0(i64 8, ptr %4) #11
  %94 = load i32, ptr %2, align 4
  ret i32 %94
}