; Function Attrs: nounwind uwtable
define internal range(i32 -22, 1) i32 @config_input(ptr noundef readonly captures(none) %0) #4 {
  %2 = getelementptr inbounds nuw i8, ptr %0, i64 16
  %3 = load ptr, ptr %2, align 8, !tbaa !82
  %4 = getelementptr inbounds nuw i8, ptr %3, i64 72
  %5 = load ptr, ptr %4, align 8, !tbaa !25
  %6 = getelementptr inbounds nuw i8, ptr %0, i64 36
  %7 = load i32, ptr %6, align 4, !tbaa !83
  %8 = tail call ptr @av_pix_fmt_desc_get(i32 noundef %7) #11
  %9 = getelementptr inbounds nuw i8, ptr %8, i64 10
  %10 = load i8, ptr %9, align 2, !tbaa !84
  %11 = zext i8 %10 to i32
  %12 = getelementptr inbounds nuw i8, ptr %5, i64 72
  store i32 %11, ptr %12, align 8, !tbaa !86
  %13 = getelementptr inbounds nuw i8, ptr %0, i64 40
  %14 = getelementptr inbounds nuw i8, ptr %5, i64 40
  %15 = getelementptr inbounds nuw i8, ptr %0, i64 44
  %16 = getelementptr inbounds nuw i8, ptr %5, i64 56
  br label %17

17:                                               ; preds = %1, %28
  %indvars.iv = phi i64 [ 0, %1 ], [ %indvars.iv.next, %28 ]
  %18 = load i32, ptr %6, align 4, !tbaa !83
  %19 = load i32, ptr %13, align 8, !tbaa !72
  %20 = trunc nuw nsw i64 %indvars.iv to i32
  %21 = tail call i32 @av_image_get_linesize(i32 noundef %18, i32 noundef %19, i32 noundef %20) #11
  %22 = getelementptr inbounds nuw [4 x i32], ptr %14, i64 0, i64 %indvars.iv
  store i32 %21, ptr %22, align 4, !tbaa !63
  %23 = load i32, ptr %15, align 4, !tbaa !78
  %24 = trunc i64 %indvars.iv to i32
  %25 = add i32 %24, -1
  %or.cond = icmp ult i32 %25, 2
  br i1 %or.cond, label %26, label %28

26:                                               ; preds = %17
  %27 = load i32, ptr %12, align 8, !tbaa !86
  br label %28

28:                                               ; preds = %17, %26
  %29 = phi i32 [ %27, %26 ], [ 0, %17 ]
  %30 = ashr i32 %23, %29
  %31 = getelementptr inbounds nuw [4 x i32], ptr %16, i64 0, i64 %indvars.iv
  store i32 %30, ptr %31, align 4, !tbaa !63
  %indvars.iv.next = add nuw nsw i64 %indvars.iv, 1
  %exitcond.not = icmp eq i64 %indvars.iv.next, 4
  br i1 %exitcond.not, label %32, label %17, !llvm.loop !87

32:                                               ; preds = %28
  %33 = getelementptr inbounds nuw i8, ptr %8, i64 40
  %34 = load i32, ptr %33, align 8, !tbaa !88
  %35 = getelementptr inbounds nuw i8, ptr %5, i64 116
  store i32 %34, ptr %35, align 4, !tbaa !4
  %36 = icmp eq i32 %34, 8
  %37 = select i1 %36, i32 8, i32 16
  %38 = tail call ptr @ff_scene_sad_get_fn(i32 noundef %37) #11
  %39 = getelementptr inbounds nuw i8, ptr %5, i64 96
  store ptr %38, ptr %39, align 8, !tbaa !61
  %.not = icmp eq ptr %38, null
  br i1 %.not, label %48, label %40

40:                                               ; preds = %32
  %41 = getelementptr inbounds nuw i8, ptr %5, i64 76
  %42 = getelementptr inbounds nuw i8, ptr %0, i64 96
  %43 = load i64, ptr %42, align 8
  store i64 %43, ptr %41, align 4
  %44 = load i32, ptr %35, align 4, !tbaa !4
  %45 = icmp eq i32 %44, 8
  %spec.select.i = select i1 %45, i32 128, i32 32768
  %spec.select5.i = select i1 %45, ptr @blend_frames8_c, ptr @blend_frames16_c
  %46 = getelementptr inbounds nuw i8, ptr %5, i64 112
  store i32 %spec.select.i, ptr %46, align 8, !tbaa !15
  %47 = getelementptr inbounds nuw i8, ptr %5, i64 200
  store ptr %spec.select5.i, ptr %47, align 8, !tbaa !16
  br label %48

48:                                               ; preds = %32, %40
  %.027 = phi i32 [ 0, %40 ], [ -22, %32 ]
  ret i32 %.027
}